; ModuleID = '20/677.c'
source_filename = "20/677.c"
target datalayout = "e-m:e-p270:32:32-p271:32:32-p272:64:64-i64:64-f80:128-n8:16:32:64-S128"
target triple = "x86_64-pc-linux-gnu"

@.str = private unnamed_addr constant [5 x i8] c"%s%s\00", align 1
@.str.1 = private unnamed_addr constant [4 x i8] c"%s\0A\00", align 1

; Function Attrs: noinline nounwind uwtable
define dso_local void @main() #0 {
  %1 = alloca [20 x i8], align 16
  %2 = alloca [10 x i8], align 1
  %3 = alloca i32, align 4
  %4 = alloca i32, align 4
  %5 = alloca i32, align 4
  %6 = alloca i32, align 4
  %7 = alloca i32, align 4
  br label %8

8:                                                ; preds = %81, %0
  %9 = getelementptr inbounds [20 x i8], [20 x i8]* %1, i64 0, i64 0
  %10 = getelementptr inbounds [10 x i8], [10 x i8]* %2, i64 0, i64 0
  %11 = call i32 (i8*, ...) @__isoc99_scanf(i8* getelementptr inbounds ([5 x i8], [5 x i8]* @.str, i64 0, i64 0), i8* %9, i8* %10)
  %12 = icmp ne i32 %11, -1
  br i1 %12, label %13, label %84

13:                                               ; preds = %8
  %14 = getelementptr inbounds [20 x i8], [20 x i8]* %1, i64 0, i64 0
  %15 = call i64 @strlen(i8* %14) #3
  %16 = trunc i64 %15 to i32
  store i32 %16, i32* %6, align 4
  %17 = getelementptr inbounds [10 x i8], [10 x i8]* %2, i64 0, i64 0
  %18 = call i64 @strlen(i8* %17) #3
  %19 = trunc i64 %18 to i32
  store i32 %19, i32* %7, align 4
  store i32 0, i32* %5, align 4
  store i32 1, i32* %3, align 4
  br label %20

20:                                               ; preds = %39, %13
  %21 = load i32, i32* %3, align 4
  %22 = load i32, i32* %6, align 4
  %23 = icmp slt i32 %21, %22
  br i1 %23, label %24, label %42

24:                                               ; preds = %20
  %25 = load i32, i32* %3, align 4
  %26 = sext i32 %25 to i64
  %27 = getelementptr inbounds [20 x i8], [20 x i8]* %1, i64 0, i64 %26
  %28 = load i8, i8* %27, align 1
  %29 = sext i8 %28 to i32
  %30 = load i32, i32* %5, align 4
  %31 = sext i32 %30 to i64
  %32 = getelementptr inbounds [20 x i8], [20 x i8]* %1, i64 0, i64 %31
  %33 = load i8, i8* %32, align 1
  %34 = sext i8 %33 to i32
  %35 = icmp sgt i32 %29, %34
  br i1 %35, label %36, label %38

36:                                               ; preds = %24
  %37 = load i32, i32* %3, align 4
  store i32 %37, i32* %5, align 4
  br label %38

38:                                               ; preds = %36, %24
  br label %39

39:                                               ; preds = %38
  %40 = load i32, i32* %3, align 4
  %41 = add nsw i32 %40, 1
  store i32 %41, i32* %3, align 4
  br label %20

42:                                               ; preds = %20
  %43 = load i32, i32* %6, align 4
  store i32 %43, i32* %3, align 4
  br label %44

44:                                               ; preds = %58, %42
  %45 = load i32, i32* %3, align 4
  %46 = load i32, i32* %5, align 4
  %47 = icmp sgt i32 %45, %46
  br i1 %47, label %48, label %61

48:                                               ; preds = %44
  %49 = load i32, i32* %3, align 4
  %50 = sext i32 %49 to i64
  %51 = getelementptr inbounds [20 x i8], [20 x i8]* %1, i64 0, i64 %50
  %52 = load i8, i8* %51, align 1
  %53 = load i32, i32* %3, align 4
  %54 = load i32, i32* %7, align 4
  %55 = add nsw i32 %53, %54
  %56 = sext i32 %55 to i64
  %57 = getelementptr inbounds [20 x i8], [20 x i8]* %1, i64 0, i64 %56
  store i8 %52, i8* %57, align 1
  br label %58

58:                                               ; preds = %48
  %59 = load i32, i32* %3, align 4
  %60 = add nsw i32 %59, -1
  store i32 %60, i32* %3, align 4
  br label %44

61:                                               ; preds = %44
  %62 = load i32, i32* %5, align 4
  %63 = add nsw i32 %62, 1
  store i32 %63, i32* %3, align 4
  store i32 0, i32* %4, align 4
  br label %64

64:                                               ; preds = %76, %61
  %65 = load i32, i32* %4, align 4
  %66 = load i32, i32* %7, align 4
  %67 = icmp slt i32 %65, %66
  br i1 %67, label %68, label %81

68:                                               ; preds = %64
  %69 = load i32, i32* %4, align 4
  %70 = sext i32 %69 to i64
  %71 = getelementptr inbounds [10 x i8], [10 x i8]* %2, i64 0, i64 %70
  %72 = load i8, i8* %71, align 1
  %73 = load i32, i32* %3, align 4
  %74 = sext i32 %73 to i64
  %75 = getelementptr inbounds [20 x i8], [20 x i8]* %1, i64 0, i64 %74
  store i8 %72, i8* %75, align 1
  br label %76

76:                                               ; preds = %68
  %77 = load i32, i32* %3, align 4
  %78 = add nsw i32 %77, 1
  store i32 %78, i32* %3, align 4
  %79 = load i32, i32* %4, align 4
  %80 = add nsw i32 %79, 1
  store i32 %80, i32* %4, align 4
  br label %64

81:                                               ; preds = %64
  %82 = getelementptr inbounds [20 x i8], [20 x i8]* %1, i64 0, i64 0
  %83 = call i32 (i8*, ...) @printf(i8* getelementptr inbounds ([4 x i8], [4 x i8]* @.str.1, i64 0, i64 0), i8* %82)
  br label %8

84:                                               ; preds = %8
  ret void
}

declare dso_local i32 @__isoc99_scanf(i8*, ...) #1

; Function Attrs: nounwind readonly
declare dso_local i64 @strlen(i8*) #2

declare dso_local i32 @printf(i8*, ...) #1


!llvm.module.flags = !{!0}
!llvm.ident = !{!1}

!0 = !{i32 1, !"wchar_size", i32 4}
!1 = !{!"clang version 10.0.0-4ubuntu1 "}
